; Function Attrs: inlinehint nounwind uwtable
define internal fastcc range(i32 -32, 1) i32 @pmix_bfrops_base_tma_copy_endpoint(ptr noundef nonnull writeonly captures(none) %0, ptr noundef readonly captures(none) %1, ptr noundef %2) unnamed_addr #4 {
  %.not.i.i = icmp eq ptr %2, null
  br i1 %.not.i.i, label %7, label %4

4:                                                ; preds = %3
  %5 = load ptr, ptr %2, align 8, !tbaa !39
  %6 = tail call ptr %5(ptr noundef nonnull %2, i64 noundef 32) #17
  br label %pmix_tma_malloc.exit.i

7:                                                ; preds = %3
  %8 = tail call noalias dereferenceable_or_null(32) ptr @malloc(i64 noundef 32) #18
  br label %pmix_tma_malloc.exit.i

pmix_tma_malloc.exit.i:                           ; preds = %7, %4
  %.0.i.i = phi ptr [ %6, %4 ], [ %8, %7 ]
  %.not.i = icmp eq ptr %.0.i.i, null
  br i1 %.not.i, label %pmix_bfrops_base_tma_endpoint_create.exit.thread, label %9, !prof !29

9:                                                ; preds = %pmix_tma_malloc.exit.i
  tail call void @llvm.memset.p0.i64(ptr noundef nonnull align 8 dereferenceable(32) %.0.i.i, i8 0, i64 32, i1 false)
  %10 = load ptr, ptr %1, align 8, !tbaa !137
  %.not = icmp eq ptr %10, null
  br i1 %.not, label %18, label %11

11:                                               ; preds = %9
  br i1 %.not.i.i, label %16, label %12

12:                                               ; preds = %11
  %13 = getelementptr inbounds nuw i8, ptr %2, i64 24
  %14 = load ptr, ptr %13, align 8, !tbaa !194
  %15 = tail call ptr %14(ptr noundef nonnull %2, ptr noundef nonnull %10) #17
  br label %pmix_tma_strdup.exit

16:                                               ; preds = %11
  %17 = tail call noalias ptr @strdup(ptr noundef nonnull %10) #17
  br label %pmix_tma_strdup.exit

pmix_tma_strdup.exit:                             ; preds = %12, %16
  %.0.i = phi ptr [ %15, %12 ], [ %17, %16 ]
  store ptr %.0.i, ptr %.0.i.i, align 8, !tbaa !137
  br label %18

18:                                               ; preds = %pmix_tma_strdup.exit, %9
  %19 = getelementptr inbounds nuw i8, ptr %1, i64 8
  %20 = load ptr, ptr %19, align 8, !tbaa !140
  %.not24 = icmp eq ptr %20, null
  br i1 %.not24, label %29, label %21

21:                                               ; preds = %18
  br i1 %.not.i.i, label %26, label %22

22:                                               ; preds = %21
  %23 = getelementptr inbounds nuw i8, ptr %2, i64 24
  %24 = load ptr, ptr %23, align 8, !tbaa !194
  %25 = tail call ptr %24(ptr noundef nonnull %2, ptr noundef nonnull %20) #17
  br label %pmix_tma_strdup.exit29

26:                                               ; preds = %21
  %27 = tail call noalias ptr @strdup(ptr noundef nonnull %20) #17
  br label %pmix_tma_strdup.exit29

pmix_tma_strdup.exit29:                           ; preds = %22, %26
  %.0.i28 = phi ptr [ %25, %22 ], [ %27, %26 ]
  %28 = getelementptr inbounds nuw i8, ptr %.0.i.i, i64 8
  store ptr %.0.i28, ptr %28, align 8, !tbaa !140
  br label %29

29:                                               ; preds = %pmix_tma_strdup.exit29, %18
  %30 = getelementptr inbounds nuw i8, ptr %1, i64 16
  %31 = load ptr, ptr %30, align 8, !tbaa !141
  %.not25 = icmp eq ptr %31, null
  br i1 %.not25, label %45, label %32

32:                                               ; preds = %29
  %33 = getelementptr inbounds nuw i8, ptr %1, i64 24
  %34 = load i64, ptr %33, align 8, !tbaa !253
  br i1 %.not.i.i, label %38, label %35

35:                                               ; preds = %32
  %36 = load ptr, ptr %2, align 8, !tbaa !39
  %37 = tail call ptr %36(ptr noundef nonnull %2, i64 noundef %34) #17
  %.pre = load i64, ptr %33, align 8, !tbaa !253
  br label %pmix_tma_malloc.exit

38:                                               ; preds = %32
  %39 = tail call noalias ptr @malloc(i64 noundef %34) #18
  br label %pmix_tma_malloc.exit

pmix_tma_malloc.exit:                             ; preds = %35, %38
  %40 = phi i64 [ %.pre, %35 ], [ %34, %38 ]
  %.0.i31 = phi ptr [ %37, %35 ], [ %39, %38 ]
  %41 = getelementptr inbounds nuw i8, ptr %.0.i.i, i64 16
  store ptr %.0.i31, ptr %41, align 8, !tbaa !141
  %42 = load ptr, ptr %30, align 8, !tbaa !141
  tail call void @llvm.memcpy.p0.p0.i64(ptr align 1 %.0.i31, ptr align 1 %42, i64 %40, i1 false)
  %43 = load i64, ptr %33, align 8, !tbaa !253
  %44 = getelementptr inbounds nuw i8, ptr %.0.i.i, i64 24
  store i64 %43, ptr %44, align 8, !tbaa !253
  br label %45

45:                                               ; preds = %pmix_tma_malloc.exit, %29
  store ptr %.0.i.i, ptr %0, align 8, !tbaa !299
  br label %pmix_bfrops_base_tma_endpoint_create.exit.thread

pmix_bfrops_base_tma_endpoint_create.exit.thread: ; preds = %pmix_tma_malloc.exit.i, %45
  %.0 = phi i32 [ 0, %45 ], [ -32, %pmix_tma_malloc.exit.i ]
  ret i32 %.0
}